target datalayout = "e-m:e-p270:32:32-p271:32:32-p272:64:64-i64:64-i128:128-f80:128-n8:16:32:64-S128"
target triple = "x86_64-pc-linux-gnu"

%struct.expert_field = type { i32, i32 }
%struct._packet_info = type { ptr, ptr, i32, i32, %struct.nstime_t, %struct.nstime_t, %struct.nstime_t, i8, ptr, ptr, ptr, ptr, %struct._address, %struct._address, %struct._address, %struct._address, %struct._address, %struct._address, i32, ptr, i8, [3 x i8], %struct.anon, i32, i32, i32, i32, ptr, i8, ptr, ptr, i16, i16, i32, i32, i16, i32, i32, ptr, ptr, ptr, i8, i8, i16, i16, i16, i32, i16, i16, ptr, ptr, ptr, ptr, ptr, i32, i32 }
%struct.nstime_t = type { i64, i32 }
%struct._address = type { i32, i32, ptr, ptr }
%struct.anon = type { i8, [3 x i8] }
%struct._alcap_message_info_t = type { i32, i32, i32, i32, i32, i32, ptr, ptr, i32 }

@hf_alcap_cau_coding = internal global i32 0, align 4
@hf_alcap_cau_value_itu = internal global i32 0, align 4
@hf_alcap_cau_value_non_itu = internal global i32 0, align 4
@hf_alcap_cau_diag = internal global i32 0, align 4
@hf_alcap_cau_diag_len = internal global i32 0, align 4
@hf_alcap_cau_diag_msg = internal global i32 0, align 4
@hf_alcap_cau_diag_param_id = internal global i32 0, align 4
@hf_alcap_cau_diag_field_num = internal global i32 0, align 4
@ett_cau_diag = internal global i32 0, align 4
@ei_alcap_parameter_field_bad_length = internal global %struct.expert_field zeroinitializer, align 4
@ei_alcap_undecoded = internal global %struct.expert_field zeroinitializer, align 4
@ei_alcap_abnormal_release = internal global %struct.expert_field zeroinitializer, align 4
@.str.410 = private unnamed_addr constant [12 x i8] c"Unknown(%u)\00", align 1
@.str.411 = private unnamed_addr constant [3 x i8] c"%u\00", align 1

; Function Attrs: null_pointer_is_valid sspstrong uwtable
define internal ptr @dissect_fields_cau(ptr noundef %0, ptr noundef %1, ptr noundef %2, i32 noundef %3, i32 noundef %4, ptr noundef %5) #0 {
  %7 = alloca ptr, align 8
  %8 = alloca ptr, align 8
  %9 = alloca ptr, align 8
  %10 = alloca ptr, align 8
  %11 = alloca i32, align 4
  %12 = alloca i32, align 4
  %13 = alloca ptr, align 8
  %14 = alloca i32, align 4
  %15 = alloca ptr, align 8
  %16 = alloca ptr, align 8
  %17 = alloca i32, align 4
  %18 = alloca i32, align 4
  store ptr %0, ptr %8, align 8
  store ptr %1, ptr %9, align 8
  store ptr %2, ptr %10, align 8
  store i32 %3, ptr %11, align 4
  store i32 %4, ptr %12, align 4
  store ptr %5, ptr %13, align 8
  call void @llvm.lifetime.start.p0(i64 4, ptr %14) #6
  call void @llvm.lifetime.start.p0(i64 8, ptr %15) #6
  call void @llvm.lifetime.start.p0(i64 8, ptr %16) #6
  %19 = load i32, ptr %12, align 4
  %20 = icmp slt i32 %19, 2
  br i1 %20, label %21, label %28

21:                                               ; preds = %6
  %22 = load ptr, ptr %10, align 8
  %23 = load ptr, ptr %8, align 8
  %24 = load ptr, ptr %9, align 8
  %25 = load i32, ptr %11, align 4
  %26 = load i32, ptr %12, align 4
  %27 = call ptr @proto_tree_add_expert(ptr noundef %22, ptr noundef %23, ptr noundef @ei_alcap_parameter_field_bad_length, ptr noundef %24, i32 noundef %25, i32 noundef %26)
  store ptr null, ptr %7, align 8
  store i32 1, ptr %17, align 4
  br label %161

28:                                               ; preds = %6
  %29 = load ptr, ptr %9, align 8
  %30 = load i32, ptr %11, align 4
  %31 = add i32 %30, 1
  %32 = call zeroext i8 @tvb_get_uint8(ptr noundef %29, i32 noundef %31)
  %33 = zext i8 %32 to i32
  %34 = and i32 %33, 127
  %35 = load ptr, ptr %13, align 8
  %36 = getelementptr inbounds nuw %struct._alcap_message_info_t, ptr %35, i32 0, i32 8
  store i32 %34, ptr %36, align 8
  %37 = load ptr, ptr %9, align 8
  %38 = load i32, ptr %11, align 4
  %39 = call zeroext i8 @tvb_get_uint8(ptr noundef %37, i32 noundef %38)
  %40 = zext i8 %39 to i32
  %41 = and i32 %40, 3
  store i32 %41, ptr %14, align 4
  %42 = load ptr, ptr %10, align 8
  %43 = load i32, ptr @hf_alcap_cau_coding, align 4
  %44 = load ptr, ptr %9, align 8
  %45 = load i32, ptr %11, align 4
  %46 = call ptr @proto_tree_add_item(ptr noundef %42, i32 noundef %43, ptr noundef %44, i32 noundef %45, i32 noundef 1, i32 noundef 0)
  %47 = load i32, ptr %14, align 4
  %48 = icmp eq i32 %47, 0
  br i1 %48, label %49, label %74

49:                                               ; preds = %28
  %50 = load ptr, ptr %10, align 8
  %51 = load i32, ptr @hf_alcap_cau_value_itu, align 4
  %52 = load ptr, ptr %9, align 8
  %53 = load i32, ptr %11, align 4
  %54 = add i32 %53, 1
  %55 = call ptr @proto_tree_add_item(ptr noundef %50, i32 noundef %51, ptr noundef %52, i32 noundef %54, i32 noundef 1, i32 noundef 0)
  store ptr %55, ptr %16, align 8
  %56 = load ptr, ptr %13, align 8
  %57 = getelementptr inbounds nuw %struct._alcap_message_info_t, ptr %56, i32 0, i32 8
  %58 = load i32, ptr %57, align 8
  %59 = icmp ne i32 %58, 0
  br i1 %59, label %60, label %69

60:                                               ; preds = %49
  %61 = load ptr, ptr %13, align 8
  %62 = getelementptr inbounds nuw %struct._alcap_message_info_t, ptr %61, i32 0, i32 8
  %63 = load i32, ptr %62, align 8
  %64 = icmp ne i32 %63, 31
  br i1 %64, label %65, label %69

65:                                               ; preds = %60
  %66 = load ptr, ptr %8, align 8
  %67 = load ptr, ptr %16, align 8
  %68 = call ptr @expert_add_info(ptr noundef %66, ptr noundef %67, ptr noundef @ei_alcap_abnormal_release)
  br label %69

69:                                               ; preds = %65, %60, %49
  %70 = load ptr, ptr %13, align 8
  %71 = getelementptr inbounds nuw %struct._alcap_message_info_t, ptr %70, i32 0, i32 8
  %72 = load i32, ptr %71, align 8
  %73 = call ptr @val_to_str(i32 noundef %72, ptr noundef @cause_values_itu, ptr noundef @.str.410)
  store ptr %73, ptr %15, align 8
  br label %88

74:                                               ; preds = %28
  %75 = load ptr, ptr %10, align 8
  %76 = load i32, ptr @hf_alcap_cau_value_non_itu, align 4
  %77 = load ptr, ptr %9, align 8
  %78 = load i32, ptr %11, align 4
  %79 = add i32 %78, 1
  %80 = call ptr @proto_tree_add_item(ptr noundef %75, i32 noundef %76, ptr noundef %77, i32 noundef %79, i32 noundef 1, i32 noundef 0)
  %81 = load ptr, ptr %8, align 8
  %82 = getelementptr inbounds nuw %struct._packet_info, ptr %81, i32 0, i32 51
  %83 = load ptr, ptr %82, align 8
  %84 = load ptr, ptr %13, align 8
  %85 = getelementptr inbounds nuw %struct._alcap_message_info_t, ptr %84, i32 0, i32 8
  %86 = load i32, ptr %85, align 8
  %87 = call noalias ptr (ptr, ptr, ...) @wmem_strdup_printf(ptr noundef %83, ptr noundef @.str.411, i32 noundef %86)
  store ptr %87, ptr %15, align 8
  br label %88

88:                                               ; preds = %74, %69
  %89 = load ptr, ptr %10, align 8
  %90 = icmp ne ptr %89, null
  br i1 %90, label %93, label %91

91:                                               ; preds = %88
  %92 = load ptr, ptr %15, align 8
  store ptr %92, ptr %7, align 8
  store i32 1, ptr %17, align 4
  br label %161

93:                                               ; preds = %88
  %94 = load i32, ptr %11, align 4
  %95 = add i32 %94, 2
  store i32 %95, ptr %11, align 4
  %96 = load i32, ptr %12, align 4
  %97 = icmp sgt i32 %96, 2
  br i1 %97, label %98, label %159

98:                                               ; preds = %93
  call void @llvm.lifetime.start.p0(i64 4, ptr %18) #6
  %99 = load ptr, ptr %9, align 8
  %100 = load i32, ptr %11, align 4
  %101 = call zeroext i8 @tvb_get_uint8(ptr noundef %99, i32 noundef %100)
  %102 = zext i8 %101 to i32
  store i32 %102, ptr %18, align 4
  %103 = load ptr, ptr %10, align 8
  %104 = load i32, ptr @hf_alcap_cau_diag, align 4
  %105 = load ptr, ptr %9, align 8
  %106 = load i32, ptr %11, align 4
  %107 = load i32, ptr %12, align 4
  %108 = sub i32 %107, 2
  %109 = call ptr @proto_tree_add_item(ptr noundef %103, i32 noundef %104, ptr noundef %105, i32 noundef %106, i32 noundef %108, i32 noundef 0)
  store ptr %109, ptr %16, align 8
  %110 = load ptr, ptr %16, align 8
  %111 = load i32, ptr @ett_cau_diag, align 4
  %112 = call ptr @proto_item_add_subtree(ptr noundef %110, i32 noundef %111)
  store ptr %112, ptr %10, align 8
  %113 = load ptr, ptr %10, align 8
  %114 = load i32, ptr @hf_alcap_cau_diag_len, align 4
  %115 = load ptr, ptr %9, align 8
  %116 = load i32, ptr %11, align 4
  %117 = call ptr @proto_tree_add_item(ptr noundef %113, i32 noundef %114, ptr noundef %115, i32 noundef %116, i32 noundef 1, i32 noundef 0)
  %118 = load i32, ptr %18, align 4
  %119 = icmp ne i32 %118, 0
  br i1 %119, label %120, label %158

120:                                              ; preds = %98
  %121 = load ptr, ptr %13, align 8
  %122 = getelementptr inbounds nuw %struct._alcap_message_info_t, ptr %121, i32 0, i32 8
  %123 = load i32, ptr %122, align 8
  switch i32 %123, label %150 [
    i32 97, label %124
    i32 99, label %124
    i32 110, label %124
  ]

124:                                              ; preds = %120, %120, %120
  %125 = load ptr, ptr %10, align 8
  %126 = load i32, ptr @hf_alcap_cau_diag_msg, align 4
  %127 = load ptr, ptr %9, align 8
  %128 = load i32, ptr %11, align 4
  %129 = add i32 %128, 1
  store i32 %129, ptr %11, align 4
  %130 = call ptr @proto_tree_add_item(ptr noundef %125, i32 noundef %126, ptr noundef %127, i32 noundef %129, i32 noundef 1, i32 noundef 0)
  br label %131

131:                                              ; preds = %134, %124
  %132 = load i32, ptr %18, align 4
  %133 = icmp sge i32 %132, 2
  br i1 %133, label %134, label %149

134:                                              ; preds = %131
  %135 = load ptr, ptr %10, align 8
  %136 = load i32, ptr @hf_alcap_cau_diag_param_id, align 4
  %137 = load ptr, ptr %9, align 8
  %138 = load i32, ptr %11, align 4
  %139 = add i32 %138, 1
  store i32 %139, ptr %11, align 4
  %140 = call ptr @proto_tree_add_item(ptr noundef %135, i32 noundef %136, ptr noundef %137, i32 noundef %139, i32 noundef 1, i32 noundef 0)
  %141 = load ptr, ptr %10, align 8
  %142 = load i32, ptr @hf_alcap_cau_diag_field_num, align 4
  %143 = load ptr, ptr %9, align 8
  %144 = load i32, ptr %11, align 4
  %145 = add i32 %144, 1
  store i32 %145, ptr %11, align 4
  %146 = call ptr @proto_tree_add_item(ptr noundef %141, i32 noundef %142, ptr noundef %143, i32 noundef %145, i32 noundef 1, i32 noundef 0)
  %147 = load i32, ptr %18, align 4
  %148 = sub i32 %147, 2
  store i32 %148, ptr %18, align 4
  br label %131, !llvm.loop !11

149:                                              ; preds = %131
  br label %157

150:                                              ; preds = %120
  %151 = load ptr, ptr %10, align 8
  %152 = load ptr, ptr %8, align 8
  %153 = load ptr, ptr %9, align 8
  %154 = load i32, ptr %11, align 4
  %155 = load i32, ptr %18, align 4
  %156 = call ptr @proto_tree_add_expert(ptr noundef %151, ptr noundef %152, ptr noundef @ei_alcap_undecoded, ptr noundef %153, i32 noundef %154, i32 noundef %155)
  br label %157

157:                                              ; preds = %150, %149
  br label %158

158:                                              ; preds = %157, %98
  call void @llvm.lifetime.end.p0(i64 4, ptr %18) #6
  br label %159

159:                                              ; preds = %158, %93
  %160 = load ptr, ptr %15, align 8
  store ptr %160, ptr %7, align 8
  store i32 1, ptr %17, align 4
  br label %161

161:                                              ; preds = %159, %91, %21
  call void @llvm.lifetime.end.p0(i64 8, ptr %16) #6
  call void @llvm.lifetime.end.p0(i64 8, ptr %15) #6
  call void @llvm.lifetime.end.p0(i64 4, ptr %14) #6
  %162 = load ptr, ptr %7, align 8
  ret ptr %162
}