; Function Attrs: null_pointer_is_valid sspstrong uwtable
define internal ptr @dissect_fields_cau(ptr noundef %0, ptr noundef %1, ptr noundef %2, i32 noundef %3, i32 noundef %4, ptr noundef captures(none) %5) #0 {
  %7 = icmp slt i32 %4, 2
  br i1 %7, label %8, label %10

8:                                                ; preds = %6
  %9 = tail call ptr @proto_tree_add_expert(ptr noundef %2, ptr noundef %0, ptr noundef nonnull @ei_alcap_parameter_field_bad_length, ptr noundef %1, i32 noundef %3, i32 noundef %4)
  br label %.loopexit

10:                                               ; preds = %6
  %11 = add i32 %3, 1
  %12 = tail call zeroext i8 @tvb_get_uint8(ptr noundef %1, i32 noundef %11)
  %13 = and i8 %12, 127
  %14 = zext nneg i8 %13 to i32
  %15 = getelementptr inbounds nuw i8, ptr %5, i64 40
  store i32 %14, ptr %15, align 8
  %16 = tail call zeroext i8 @tvb_get_uint8(ptr noundef %1, i32 noundef %3)
  %17 = and i8 %16, 3
  %18 = load i32, ptr @hf_alcap_cau_coding, align 4
  %19 = tail call ptr @proto_tree_add_item(ptr noundef %2, i32 noundef %18, ptr noundef %1, i32 noundef %3, i32 noundef 1, i32 noundef 0)
  %20 = icmp eq i8 %17, 0
  br i1 %20, label %21, label %30

21:                                               ; preds = %10
  %22 = load i32, ptr @hf_alcap_cau_value_itu, align 4
  %23 = tail call ptr @proto_tree_add_item(ptr noundef %2, i32 noundef %22, ptr noundef %1, i32 noundef %11, i32 noundef 1, i32 noundef 0)
  %24 = load i32, ptr %15, align 8
  switch i32 %24, label %25 [
    i32 0, label %27
    i32 31, label %27
  ]

25:                                               ; preds = %21
  %26 = tail call ptr @expert_add_info(ptr noundef %0, ptr noundef %23, ptr noundef nonnull @ei_alcap_abnormal_release)
  %.pre = load i32, ptr %15, align 8
  br label %27

27:                                               ; preds = %21, %21, %25
  %28 = phi i32 [ %24, %21 ], [ %24, %21 ], [ %.pre, %25 ]
  %29 = tail call ptr @val_to_str(i32 noundef %28, ptr noundef nonnull @cause_values_itu, ptr noundef nonnull @.str.410)
  br label %37

30:                                               ; preds = %10
  %31 = load i32, ptr @hf_alcap_cau_value_non_itu, align 4
  %32 = tail call ptr @proto_tree_add_item(ptr noundef %2, i32 noundef %31, ptr noundef %1, i32 noundef %11, i32 noundef 1, i32 noundef 0)
  %33 = getelementptr inbounds nuw i8, ptr %0, i64 408
  %34 = load ptr, ptr %33, align 8
  %35 = load i32, ptr %15, align 8
  %36 = tail call noalias ptr (ptr, ptr, ...) @wmem_strdup_printf(ptr noundef %34, ptr noundef nonnull @.str.411, i32 noundef %35)
  br label %37

37:                                               ; preds = %30, %27
  %.061 = phi ptr [ %29, %27 ], [ %36, %30 ]
  %.not69 = icmp eq ptr %2, null
  br i1 %.not69, label %.loopexit, label %38

38:                                               ; preds = %37
  %39 = add i32 %3, 2
  %.not70 = icmp eq i32 %4, 2
  br i1 %.not70, label %.loopexit, label %40

40:                                               ; preds = %38
  %41 = tail call zeroext i8 @tvb_get_uint8(ptr noundef %1, i32 noundef %39)
  %42 = zext i8 %41 to i32
  %43 = load i32, ptr @hf_alcap_cau_diag, align 4
  %44 = add nsw i32 %4, -2
  %45 = tail call ptr @proto_tree_add_item(ptr noundef nonnull %2, i32 noundef %43, ptr noundef %1, i32 noundef %39, i32 noundef %44, i32 noundef 0)
  %46 = load i32, ptr @ett_cau_diag, align 4
  %47 = tail call ptr @proto_item_add_subtree(ptr noundef %45, i32 noundef %46)
  %48 = load i32, ptr @hf_alcap_cau_diag_len, align 4
  %49 = tail call ptr @proto_tree_add_item(ptr noundef %47, i32 noundef %48, ptr noundef %1, i32 noundef %39, i32 noundef 1, i32 noundef 0)
  %.not71 = icmp eq i8 %41, 0
  br i1 %.not71, label %.loopexit, label %50

50:                                               ; preds = %40
  %51 = load i32, ptr %15, align 8
  switch i32 %51, label %64 [
    i32 97, label %52
    i32 99, label %52
    i32 110, label %52
  ]

52:                                               ; preds = %50, %50, %50
  %53 = load i32, ptr @hf_alcap_cau_diag_msg, align 4
  %54 = add i32 %3, 3
  %55 = tail call ptr @proto_tree_add_item(ptr noundef %47, i32 noundef %53, ptr noundef %1, i32 noundef %54, i32 noundef 1, i32 noundef 0)
  %.not = icmp eq i8 %41, 1
  br i1 %.not, label %.loopexit, label %.lr.ph

.lr.ph:                                           ; preds = %52, %.lr.ph
  %.073 = phi i32 [ %62, %.lr.ph ], [ %42, %52 ]
  %.06372 = phi i32 [ %60, %.lr.ph ], [ %54, %52 ]
  %56 = load i32, ptr @hf_alcap_cau_diag_param_id, align 4
  %57 = add i32 %.06372, 1
  %58 = tail call ptr @proto_tree_add_item(ptr noundef %47, i32 noundef %56, ptr noundef %1, i32 noundef %57, i32 noundef 1, i32 noundef 0)
  %59 = load i32, ptr @hf_alcap_cau_diag_field_num, align 4
  %60 = add i32 %.06372, 2
  %61 = tail call ptr @proto_tree_add_item(ptr noundef %47, i32 noundef %59, ptr noundef %1, i32 noundef %60, i32 noundef 1, i32 noundef 0)
  %62 = add nsw i32 %.073, -2
  %63 = icmp samesign ugt i32 %.073, 3
  br i1 %63, label %.lr.ph, label %.loopexit, !llvm.loop !11

64:                                               ; preds = %50
  %65 = tail call ptr @proto_tree_add_expert(ptr noundef %47, ptr noundef %0, ptr noundef nonnull @ei_alcap_undecoded, ptr noundef %1, i32 noundef %39, i32 noundef %42)
  br label %.loopexit

.loopexit:                                        ; preds = %.lr.ph, %52, %38, %64, %40, %37, %8
  %.062 = phi ptr [ null, %8 ], [ %.061, %37 ], [ %.061, %40 ], [ %.061, %64 ], [ %.061, %38 ], [ %.061, %52 ], [ %.061, %.lr.ph ]
  ret ptr %.062
}